target datalayout = "e-m:e-p270:32:32-p271:32:32-p272:64:64-i64:64-i128:128-f80:128-n8:16:32:64-S128"
target triple = "x86_64-pc-linux-gnu"

%struct.Vec_Int_t_ = type { i32, i32, ptr }
%struct.Vec_Wrd_t_ = type { i32, i32, ptr }

; Function Attrs: nounwind uwtable
define internal i32 @Abc_LitIsCompl(i32 noundef %0) #0 {
  %2 = alloca i32, align 4
  store i32 %0, ptr %2, align 4
  %3 = load i32, ptr %2, align 4
  %4 = and i32 %3, 1
  ret i32 %4
}

; Function Attrs: nounwind uwtable
define internal i32 @Abc_Lit2Var(i32 noundef %0) #0 {
  %2 = alloca i32, align 4
  store i32 %0, ptr %2, align 4
  %3 = load i32, ptr %2, align 4
  %4 = ashr i32 %3, 1
  ret i32 %4
}

; Function Attrs: nounwind uwtable
define internal i32 @Vec_IntEntryLast(ptr noundef %0) #0 {
  %2 = alloca ptr, align 8
  store ptr %0, ptr %2, align 8
  %3 = load ptr, ptr %2, align 8
  %4 = getelementptr inbounds %struct.Vec_Int_t_, ptr %3, i32 0, i32 2
  %5 = load ptr, ptr %4, align 8
  %6 = load ptr, ptr %2, align 8
  %7 = getelementptr inbounds %struct.Vec_Int_t_, ptr %6, i32 0, i32 1
  %8 = load i32, ptr %7, align 4
  %9 = sub nsw i32 %8, 1
  %10 = sext i32 %9 to i64
  %11 = getelementptr inbounds i32, ptr %5, i64 %10
  %12 = load i32, ptr %11, align 4
  ret i32 %12
}

; Function Attrs: nounwind uwtable
define internal void @Abc_TtSharp(ptr noundef %0, ptr noundef %1, ptr noundef %2, i32 noundef %3) #0 {
  %5 = alloca ptr, align 8
  %6 = alloca ptr, align 8
  %7 = alloca ptr, align 8
  %8 = alloca i32, align 4
  %9 = alloca i32, align 4
  store ptr %0, ptr %5, align 8
  store ptr %1, ptr %6, align 8
  store ptr %2, ptr %7, align 8
  store i32 %3, ptr %8, align 4
  store i32 0, ptr %9, align 4
  br label %10

10:                                               ; preds = %31, %4
  %11 = load i32, ptr %9, align 4
  %12 = load i32, ptr %8, align 4
  %13 = icmp slt i32 %11, %12
  br i1 %13, label %14, label %34

14:                                               ; preds = %10
  %15 = load ptr, ptr %6, align 8
  %16 = load i32, ptr %9, align 4
  %17 = sext i32 %16 to i64
  %18 = getelementptr inbounds i64, ptr %15, i64 %17
  %19 = load i64, ptr %18, align 8
  %20 = load ptr, ptr %7, align 8
  %21 = load i32, ptr %9, align 4
  %22 = sext i32 %21 to i64
  %23 = getelementptr inbounds i64, ptr %20, i64 %22
  %24 = load i64, ptr %23, align 8
  %25 = xor i64 %24, -1
  %26 = and i64 %19, %25
  %27 = load ptr, ptr %5, align 8
  %28 = load i32, ptr %9, align 4
  %29 = sext i32 %28 to i64
  %30 = getelementptr inbounds i64, ptr %27, i64 %29
  store i64 %26, ptr %30, align 8
  br label %31

31:                                               ; preds = %14
  %32 = load i32, ptr %9, align 4
  %33 = add nsw i32 %32, 1
  store i32 %33, ptr %9, align 4
  br label %10, !llvm.loop !19

34:                                               ; preds = %10
  ret void
}

; Function Attrs: nounwind uwtable
define internal void @Abc_TtOr(ptr noundef %0, ptr noundef %1, ptr noundef %2, i32 noundef %3) #0 {
  %5 = alloca ptr, align 8
  %6 = alloca ptr, align 8
  %7 = alloca ptr, align 8
  %8 = alloca i32, align 4
  %9 = alloca i32, align 4
  store ptr %0, ptr %5, align 8
  store ptr %1, ptr %6, align 8
  store ptr %2, ptr %7, align 8
  store i32 %3, ptr %8, align 4
  store i32 0, ptr %9, align 4
  br label %10

10:                                               ; preds = %30, %4
  %11 = load i32, ptr %9, align 4
  %12 = load i32, ptr %8, align 4
  %13 = icmp slt i32 %11, %12
  br i1 %13, label %14, label %33

14:                                               ; preds = %10
  %15 = load ptr, ptr %6, align 8
  %16 = load i32, ptr %9, align 4
  %17 = sext i32 %16 to i64
  %18 = getelementptr inbounds i64, ptr %15, i64 %17
  %19 = load i64, ptr %18, align 8
  %20 = load ptr, ptr %7, align 8
  %21 = load i32, ptr %9, align 4
  %22 = sext i32 %21 to i64
  %23 = getelementptr inbounds i64, ptr %20, i64 %22
  %24 = load i64, ptr %23, align 8
  %25 = or i64 %19, %24
  %26 = load ptr, ptr %5, align 8
  %27 = load i32, ptr %9, align 4
  %28 = sext i32 %27 to i64
  %29 = getelementptr inbounds i64, ptr %26, i64 %28
  store i64 %25, ptr %29, align 8
  br label %30

30:                                               ; preds = %14
  %31 = load i32, ptr %9, align 4
  %32 = add nsw i32 %31, 1
  store i32 %32, ptr %9, align 4
  br label %10, !llvm.loop !18

33:                                               ; preds = %10
  ret void
}

; Function Attrs: nounwind uwtable
define internal i32 @Abc_Truth6WordNum(i32 noundef %0) #0 {
  %2 = alloca i32, align 4
  store i32 %0, ptr %2, align 4
  %3 = load i32, ptr %2, align 4
  %4 = icmp sle i32 %3, 6
  br i1 %4, label %5, label %6

5:                                                ; preds = %1
  br label %10

6:                                                ; preds = %1
  %7 = load i32, ptr %2, align 4
  %8 = sub nsw i32 %7, 6
  %9 = shl i32 1, %8
  br label %10

10:                                               ; preds = %6, %5
  %11 = phi i32 [ 1, %5 ], [ %9, %6 ]
  ret i32 %11
}

; Function Attrs: nounwind uwtable
define internal void @Vec_WrdFree(ptr noundef %0) #0 {
  %2 = alloca ptr, align 8
  store ptr %0, ptr %2, align 8
  %3 = load ptr, ptr %2, align 8
  %4 = getelementptr inbounds %struct.Vec_Wrd_t_, ptr %3, i32 0, i32 2
  %5 = load ptr, ptr %4, align 8
  %6 = icmp ne ptr %5, null
  br i1 %6, label %7, label %13

7:                                                ; preds = %1
  %8 = load ptr, ptr %2, align 8
  %9 = getelementptr inbounds %struct.Vec_Wrd_t_, ptr %8, i32 0, i32 2
  %10 = load ptr, ptr %9, align 8
  call void @free(ptr noundef %10) #7
  %11 = load ptr, ptr %2, align 8
  %12 = getelementptr inbounds %struct.Vec_Wrd_t_, ptr %11, i32 0, i32 2
  store ptr null, ptr %12, align 8
  br label %14

13:                                               ; preds = %1
  br label %14

14:                                               ; preds = %13, %7
  %15 = load ptr, ptr %2, align 8
  %16 = icmp ne ptr %15, null
  br i1 %16, label %17, label %19

17:                                               ; preds = %14
  %18 = load ptr, ptr %2, align 8
  call void @free(ptr noundef %18) #7
  store ptr null, ptr %2, align 8
  br label %20

19:                                               ; preds = %14
  br label %20

20:                                               ; preds = %19, %17
  ret void
}

; Function Attrs: nounwind uwtable
define i64 @Gia_ResubToTruth6(ptr noundef %0) #0 {
  %2 = alloca i64, align 8
  %3 = alloca ptr, align 8
  %4 = alloca i64, align 8
  %5 = alloca i32, align 4
  store ptr %0, ptr %3, align 8
  %6 = load ptr, ptr %3, align 8
  %7 = call i32 @Vec_IntEntryLast(ptr noundef %6)
  store i32 %7, ptr %5, align 4
  %8 = load i32, ptr %5, align 4
  %9 = icmp slt i32 %8, 2
  br i1 %9, label %10, label %14

10:                                               ; preds = %1
  %11 = load i32, ptr %5, align 4
  %12 = icmp ne i32 %11, 0
  %13 = select i1 %12, i64 -1, i64 0
  store i64 %13, ptr %2, align 8
  br label %32

14:                                               ; preds = %1
  %15 = load ptr, ptr %3, align 8
  %16 = load i32, ptr %5, align 4
  %17 = call i32 @Abc_Lit2Var(i32 noundef %16)
  %18 = sub nsw i32 %17, 2
  %19 = load ptr, ptr %3, align 8
  %20 = call i32 @Gia_ResubVarNum(ptr noundef %19)
  %21 = call i64 @Gia_ResubToTruth6_rec(ptr noundef %15, i32 noundef %18, i32 noundef %20)
  store i64 %21, ptr %4, align 8
  %22 = load i32, ptr %5, align 4
  %23 = call i32 @Abc_LitIsCompl(i32 noundef %22)
  %24 = icmp ne i32 %23, 0
  br i1 %24, label %25, label %28

25:                                               ; preds = %14
  %26 = load i64, ptr %4, align 8
  %27 = xor i64 %26, -1
  br label %30

28:                                               ; preds = %14
  %29 = load i64, ptr %4, align 8
  br label %30

30:                                               ; preds = %28, %25
  %31 = phi i64 [ %27, %25 ], [ %29, %28 ]
  store i64 %31, ptr %2, align 8
  br label %32

32:                                               ; preds = %30, %10
  %33 = load i64, ptr %2, align 8
  ret i64 %33
}

; Function Attrs: nounwind uwtable
define i32 @Gia_ResubVarNum(ptr noundef %0) #0 {
  %2 = alloca i32, align 4
  %3 = alloca ptr, align 8
  store ptr %0, ptr %3, align 8
  %4 = load ptr, ptr %3, align 8
  %5 = call i32 @Vec_IntSize(ptr noundef %4)
  %6 = icmp eq i32 %5, 1
  br i1 %6, label %7, label %12

7:                                                ; preds = %1
  %8 = load ptr, ptr %3, align 8
  %9 = call i32 @Vec_IntEntryLast(ptr noundef %8)
  %10 = icmp sge i32 %9, 2
  %11 = zext i1 %10 to i32
  store i32 %11, ptr %2, align 4
  br label %21

12:                                               ; preds = %1
  %13 = load ptr, ptr %3, align 8
  %14 = call i32 @Vec_IntEntryLast(ptr noundef %13)
  %15 = sdiv i32 %14, 2
  %16 = load ptr, ptr %3, align 8
  %17 = call i32 @Vec_IntSize(ptr noundef %16)
  %18 = sdiv i32 %17, 2
  %19 = sub nsw i32 %15, %18
  %20 = sub nsw i32 %19, 1
  store i32 %20, ptr %2, align 4
  br label %21

21:                                               ; preds = %12, %7
  %22 = load i32, ptr %2, align 4
  ret i32 %22
}

; Function Attrs: nounwind uwtable
define ptr @Gia_ManDeriveIsop(ptr noundef %0, i32 noundef %1) #0 {
  %3 = alloca ptr, align 8
  %4 = alloca i32, align 4
  %5 = alloca ptr, align 8
  %6 = alloca i32, align 4
  %7 = alloca [2 x ptr], align 16
  store ptr %0, ptr %3, align 8
  store i32 %1, ptr %4, align 4
  store ptr null, ptr %5, align 8
  %8 = load i32, ptr %4, align 4
  %9 = call i32 @Abc_Truth6WordNum(i32 noundef %8)
  store i32 %9, ptr %6, align 4
  %10 = getelementptr inbounds [2 x ptr], ptr %7, i64 0, i64 0
  %11 = load ptr, ptr %3, align 8
  %12 = load i32, ptr %6, align 4
  %13 = mul nsw i32 0, %12
  %14 = call ptr @Vec_WrdEntryP(ptr noundef %11, i32 noundef %13)
  store ptr %14, ptr %10, align 8
  %15 = getelementptr inbounds ptr, ptr %10, i64 1
  %16 = load ptr, ptr %3, align 8
  %17 = load i32, ptr %6, align 4
  %18 = mul nsw i32 1, %17
  %19 = call ptr @Vec_WrdEntryP(ptr noundef %16, i32 noundef %18)
  store ptr %19, ptr %15, align 8
  %20 = getelementptr inbounds [2 x ptr], ptr %7, i64 0, i64 0
  %21 = load ptr, ptr %20, align 16
  %22 = getelementptr inbounds [2 x ptr], ptr %7, i64 0, i64 1
  %23 = load ptr, ptr %22, align 8
  %24 = load i32, ptr %4, align 4
  %25 = call ptr @Kit_IsopResub(ptr noundef %21, ptr noundef %23, i32 noundef %24, ptr noundef null)
  store ptr %25, ptr %5, align 8
  %26 = load ptr, ptr %5, align 8
  ret ptr %26
}

; Function Attrs: nounwind uwtable
define ptr @Gia_ManDeriveBidec(ptr noundef %0, i32 noundef %1) #0 {
  %3 = alloca ptr, align 8
  %4 = alloca i32, align 4
  %5 = alloca ptr, align 8
  %6 = alloca i32, align 4
  %7 = alloca [2 x ptr], align 16
  store ptr %0, ptr %3, align 8
  store i32 %1, ptr %4, align 4
  store ptr null, ptr %5, align 8
  %8 = load i32, ptr %4, align 4
  %9 = call i32 @Abc_Truth6WordNum(i32 noundef %8)
  store i32 %9, ptr %6, align 4
  %10 = getelementptr inbounds [2 x ptr], ptr %7, i64 0, i64 0
  %11 = load ptr, ptr %3, align 8
  %12 = load i32, ptr %6, align 4
  %13 = mul nsw i32 0, %12
  %14 = call ptr @Vec_WrdEntryP(ptr noundef %11, i32 noundef %13)
  store ptr %14, ptr %10, align 8
  %15 = getelementptr inbounds ptr, ptr %10, i64 1
  %16 = load ptr, ptr %3, align 8
  %17 = load i32, ptr %6, align 4
  %18 = mul nsw i32 1, %17
  %19 = call ptr @Vec_WrdEntryP(ptr noundef %16, i32 noundef %18)
  store ptr %19, ptr %15, align 8
  %20 = getelementptr inbounds [2 x ptr], ptr %7, i64 0, i64 0
  %21 = load ptr, ptr %20, align 16
  %22 = getelementptr inbounds [2 x ptr], ptr %7, i64 0, i64 0
  %23 = load ptr, ptr %22, align 16
  %24 = getelementptr inbounds [2 x ptr], ptr %7, i64 0, i64 1
  %25 = load ptr, ptr %24, align 8
  %26 = load i32, ptr %6, align 4
  call void @Abc_TtOr(ptr noundef %21, ptr noundef %23, ptr noundef %25, i32 noundef %26)
  %27 = getelementptr inbounds [2 x ptr], ptr %7, i64 0, i64 1
  %28 = load ptr, ptr %27, align 8
  %29 = getelementptr inbounds [2 x ptr], ptr %7, i64 0, i64 0
  %30 = load ptr, ptr %29, align 16
  %31 = load i32, ptr %4, align 4
  %32 = call ptr @Bdc_ManBidecResub(ptr noundef %28, ptr noundef %30, i32 noundef %31)
  store ptr %32, ptr %5, align 8
  %33 = getelementptr inbounds [2 x ptr], ptr %7, i64 0, i64 0
  %34 = load ptr, ptr %33, align 16
  %35 = getelementptr inbounds [2 x ptr], ptr %7, i64 0, i64 0
  %36 = load ptr, ptr %35, align 16
  %37 = getelementptr inbounds [2 x ptr], ptr %7, i64 0, i64 1
  %38 = load ptr, ptr %37, align 8
  %39 = load i32, ptr %6, align 4
  call void @Abc_TtSharp(ptr noundef %34, ptr noundef %36, ptr noundef %38, i32 noundef %39)
  %40 = load ptr, ptr %5, align 8
  ret ptr %40
}

; Function Attrs: nounwind uwtable
define internal ptr @Vec_WrdEntryP(ptr noundef %0, i32 noundef %1) #0 {
  %3 = alloca ptr, align 8
  %4 = alloca i32, align 4
  store ptr %0, ptr %3, align 8
  store i32 %1, ptr %4, align 4
  %5 = load ptr, ptr %3, align 8
  %6 = getelementptr inbounds %struct.Vec_Wrd_t_, ptr %5, i32 0, i32 2
  %7 = load ptr, ptr %6, align 8
  %8 = load i32, ptr %4, align 4
  %9 = sext i32 %8 to i64
  %10 = getelementptr inbounds i64, ptr %7, i64 %9
  ret ptr %10
}

; Function Attrs: nounwind uwtable
define internal i32 @Vec_IntSize(ptr noundef %0) #0 {
  %2 = alloca ptr, align 8
  store ptr %0, ptr %2, align 8
  %3 = load ptr, ptr %2, align 8
  %4 = getelementptr inbounds %struct.Vec_Int_t_, ptr %3, i32 0, i32 1
  %5 = load i32, ptr %4, align 4
  ret i32 %5
}

; Function Attrs: nounwind uwtable
define internal i32 @Vec_WrdSize(ptr noundef %0) #0 {
  %2 = alloca ptr, align 8
  store ptr %0, ptr %2, align 8
  %3 = load ptr, ptr %2, align 8
  %4 = getelementptr inbounds %struct.Vec_Wrd_t_, ptr %3, i32 0, i32 1
  %5 = load i32, ptr %4, align 4
  ret i32 %5
}

; Function Attrs: nounwind uwtable
define ptr @Gia_ManDeriveSolutionOne(ptr noundef %0, ptr noundef %1, ptr noundef %2, ptr noundef %3, ptr noundef %4, i32 noundef %5, i32 noundef %6) #0 {
  %8 = alloca ptr, align 8
  %9 = alloca ptr, align 8
  %10 = alloca ptr, align 8
  %11 = alloca ptr, align 8
  %12 = alloca ptr, align 8
  %13 = alloca i32, align 4
  %14 = alloca i32, align 4
  %15 = alloca ptr, align 8
  %16 = alloca ptr, align 8
  %17 = alloca i32, align 4
  %18 = alloca i32, align 4
  %19 = alloca [2 x ptr], align 16
  %20 = alloca i64, align 8
  store ptr %0, ptr %8, align 8
  store ptr %1, ptr %9, align 8
  store ptr %2, ptr %10, align 8
  store ptr %3, ptr %11, align 8
  store ptr %4, ptr %12, align 8
  store i32 %5, ptr %13, align 4
  store i32 %6, ptr %14, align 4
  store ptr null, ptr %15, align 8
  %21 = load ptr, ptr %8, align 8
  %22 = load ptr, ptr %9, align 8
  %23 = load ptr, ptr %10, align 8
  %24 = load ptr, ptr %11, align 8
  %25 = load ptr, ptr %12, align 8
  %26 = load i32, ptr %13, align 4
  %27 = call ptr @Gia_ManDeriveTruths(ptr noundef %21, ptr noundef %22, ptr noundef %23, ptr noundef %24, ptr noundef %25, i32 noundef %26)
  store ptr %27, ptr %16, align 8
  %28 = load ptr, ptr %16, align 8
  %29 = call i32 @Vec_WrdSize(ptr noundef %28)
  %30 = sdiv i32 %29, 2
  store i32 %30, ptr %17, align 4
  %31 = load ptr, ptr %12, align 8
  %32 = call i32 @Vec_IntSize(ptr noundef %31)
  store i32 %32, ptr %18, align 4
  %33 = getelementptr inbounds [2 x ptr], ptr %19, i64 0, i64 0
  %34 = load ptr, ptr %16, align 8
  %35 = load i32, ptr %17, align 4
  %36 = mul nsw i32 0, %35
  %37 = call ptr @Vec_WrdEntryP(ptr noundef %34, i32 noundef %36)
  store ptr %37, ptr %33, align 8
  %38 = getelementptr inbounds ptr, ptr %33, i64 1
  %39 = load ptr, ptr %16, align 8
  %40 = load i32, ptr %17, align 4
  %41 = mul nsw i32 1, %40
  %42 = call ptr @Vec_WrdEntryP(ptr noundef %39, i32 noundef %41)
  store ptr %42, ptr %38, align 8
  %43 = load i32, ptr %14, align 4
  %44 = icmp eq i32 %43, 0
  br i1 %44, label %45, label %49

45:                                               ; preds = %7
  %46 = load ptr, ptr %16, align 8
  %47 = load i32, ptr %18, align 4
  %48 = call ptr @Gia_ManDeriveResub(ptr noundef %46, i32 noundef %47)
  store ptr %48, ptr %15, align 8
  br label %73

49:                                               ; preds = %7
  %50 = load i32, ptr %14, align 4
  %51 = icmp eq i32 %50, 1
  br i1 %51, label %52, label %56

52:                                               ; preds = %49
  %53 = load ptr, ptr %16, align 8
  %54 = load i32, ptr %18, align 4
  %55 = call ptr @Gia_ManDeriveBidec(ptr noundef %53, i32 noundef %54)
  store ptr %55, ptr %15, align 8
  br label %72

56:                                               ; preds = %49
  %57 = load i32, ptr %14, align 4
  %58 = icmp eq i32 %57, 2
  br i1 %58, label %59, label %63

59:                                               ; preds = %56
  %60 = load ptr, ptr %16, align 8
  %61 = load i32, ptr %18, align 4
  %62 = call ptr @Gia_ManDeriveIsop(ptr noundef %60, i32 noundef %61)
  store ptr %62, ptr %15, align 8
  br label %71

63:                                               ; preds = %56
  %64 = load i32, ptr %14, align 4
  %65 = icmp eq i32 %64, 3
  br i1 %65, label %66, label %70

66:                                               ; preds = %63
  %67 = load ptr, ptr %16, align 8
  %68 = load i32, ptr %18, align 4
  %69 = call ptr @Gia_ManDeriveBdd(ptr noundef %67, i32 noundef %68)
  store ptr %69, ptr %15, align 8
  br label %70

70:                                               ; preds = %66, %63
  br label %71

71:                                               ; preds = %70, %59
  br label %72

72:                                               ; preds = %71, %52
  br label %73

73:                                               ; preds = %72, %45
  %74 = load ptr, ptr %15, align 8
  %75 = icmp ne ptr %74, null
  br i1 %75, label %76, label %83

76:                                               ; preds = %73
  %77 = load ptr, ptr %15, align 8
  %78 = call i32 @Gia_ResubVarNum(ptr noundef %77)
  %79 = icmp sle i32 %78, 6
  br i1 %79, label %80, label %83

80:                                               ; preds = %76
  %81 = load ptr, ptr %15, align 8
  %82 = call i64 @Gia_ResubToTruth6(ptr noundef %81)
  store i64 %82, ptr %20, align 8
  br label %83

83:                                               ; preds = %80, %76, %73
  %84 = load ptr, ptr %16, align 8
  call void @Vec_WrdFree(ptr noundef %84)
  %85 = load ptr, ptr %15, align 8
  ret ptr %85
}