; Function Attrs: nounwind uwtable
define ptr @Gia_ManDeriveSolutionOne(ptr noundef readnone captures(none) %0, ptr noundef readonly captures(none) %1, ptr noundef readonly captures(none) %2, ptr noundef readonly captures(none) %3, ptr noundef readonly captures(none) %4, i32 noundef %5, i32 noundef %6) local_unnamed_addr #2 {
  %8 = tail call ptr @Gia_ManDeriveTruths(ptr poison, ptr noundef %1, ptr noundef %2, ptr noundef %3, ptr noundef %4, i32 noundef %5)
  %9 = getelementptr i8, ptr %4, i64 4
  %.val = load i32, ptr %9, align 4
  %10 = getelementptr i8, ptr %8, i64 8
  %.val30 = load ptr, ptr %10, align 8
  switch i32 %6, label %Gia_ResubToTruth6.exit [
    i32 0, label %11
    i32 1, label %13
    i32 2, label %34
    i32 3, label %42
  ]

11:                                               ; preds = %7
  %12 = tail call ptr @Gia_ManDeriveResub(ptr noundef nonnull %8, i32 noundef %.val)
  br label %Gia_ManDeriveBidec.exit

13:                                               ; preds = %7
  %14 = icmp slt i32 %.val, 7
  %15 = add nsw i32 %.val, -6
  %16 = shl nuw i32 1, %15
  %17 = select i1 %14, i32 1, i32 %16
  %18 = sext i32 %17 to i64
  %19 = getelementptr inbounds i64, ptr %.val30, i64 %18
  %20 = icmp sgt i32 %17, 0
  br i1 %20, label %.lr.ph.preheader.i.i, label %Abc_TtOr.exit.thread.i

Abc_TtOr.exit.thread.i:                           ; preds = %13
  %21 = tail call ptr @Bdc_ManBidecResub(ptr noundef nonnull %19, ptr noundef %.val30, i32 noundef %.val) #14
  br label %Gia_ManDeriveBidec.exit

.lr.ph.preheader.i.i:                             ; preds = %13
  %wide.trip.count.i.i = zext nneg i32 %17 to i64
  br label %.lr.ph.i.i

.lr.ph.i.i:                                       ; preds = %.lr.ph.i.i, %.lr.ph.preheader.i.i
  %indvars.iv.i.i = phi i64 [ 0, %.lr.ph.preheader.i.i ], [ %indvars.iv.next.i.i, %.lr.ph.i.i ]
  %22 = getelementptr inbounds nuw i64, ptr %.val30, i64 %indvars.iv.i.i
  %23 = load i64, ptr %22, align 8
  %24 = getelementptr inbounds nuw i64, ptr %19, i64 %indvars.iv.i.i
  %25 = load i64, ptr %24, align 8
  %26 = or i64 %25, %23
  store i64 %26, ptr %22, align 8
  %indvars.iv.next.i.i = add nuw nsw i64 %indvars.iv.i.i, 1
  %exitcond.not.i.i = icmp eq i64 %indvars.iv.next.i.i, %wide.trip.count.i.i
  br i1 %exitcond.not.i.i, label %Abc_TtOr.exit.i, label %.lr.ph.i.i, !llvm.loop !16

Abc_TtOr.exit.i:                                  ; preds = %.lr.ph.i.i
  %27 = tail call ptr @Bdc_ManBidecResub(ptr noundef nonnull %19, ptr noundef nonnull %.val30, i32 noundef %.val) #14
  br label %.lr.ph.i17.i

.lr.ph.i17.i:                                     ; preds = %.lr.ph.i17.i, %Abc_TtOr.exit.i
  %indvars.iv.i18.i = phi i64 [ 0, %Abc_TtOr.exit.i ], [ %indvars.iv.next.i19.i, %.lr.ph.i17.i ]
  %28 = getelementptr inbounds nuw i64, ptr %.val30, i64 %indvars.iv.i18.i
  %29 = load i64, ptr %28, align 8
  %30 = getelementptr inbounds nuw i64, ptr %19, i64 %indvars.iv.i18.i
  %31 = load i64, ptr %30, align 8
  %32 = xor i64 %31, -1
  %33 = and i64 %29, %32
  store i64 %33, ptr %28, align 8
  %indvars.iv.next.i19.i = add nuw nsw i64 %indvars.iv.i18.i, 1
  %exitcond.not.i20.i = icmp eq i64 %indvars.iv.next.i19.i, %wide.trip.count.i.i
  br i1 %exitcond.not.i20.i, label %Gia_ManDeriveBidec.exit, label %.lr.ph.i17.i, !llvm.loop !17

34:                                               ; preds = %7
  %35 = icmp slt i32 %.val, 7
  %36 = add nsw i32 %.val, -6
  %37 = shl nuw i32 1, %36
  %38 = select i1 %35, i32 1, i32 %37
  %39 = sext i32 %38 to i64
  %40 = getelementptr inbounds i64, ptr %.val30, i64 %39
  %41 = tail call ptr @Kit_IsopResub(ptr noundef %.val30, ptr noundef nonnull %40, i32 noundef %.val, ptr noundef null) #14
  br label %Gia_ManDeriveBidec.exit

42:                                               ; preds = %7
  %43 = tail call ptr @Gia_ManDeriveBdd(ptr noundef nonnull %8, i32 noundef %.val)
  br label %Gia_ManDeriveBidec.exit

Gia_ManDeriveBidec.exit:                          ; preds = %.lr.ph.i17.i, %Abc_TtOr.exit.thread.i, %42, %34, %11
  %.0 = phi ptr [ %12, %11 ], [ %41, %34 ], [ %43, %42 ], [ %21, %Abc_TtOr.exit.thread.i ], [ %27, %.lr.ph.i17.i ]
  %.not = icmp eq ptr %.0, null
  br i1 %.not, label %Gia_ResubToTruth6.exit, label %44

44:                                               ; preds = %Gia_ManDeriveBidec.exit
  %45 = getelementptr i8, ptr %.0, i64 4
  %.val.i = load i32, ptr %45, align 4
  %46 = icmp eq i32 %.val.i, 1
  %47 = getelementptr i8, ptr %.0, i64 8
  %.val6.i32 = load ptr, ptr %47, align 8
  br i1 %46, label %Gia_ResubVarNum.exit.thread, label %Gia_ResubVarNum.exit

Gia_ResubVarNum.exit:                             ; preds = %44
  %48 = sext i32 %.val.i to i64
  %49 = getelementptr i32, ptr %.val6.i32, i64 %48
  %50 = getelementptr i8, ptr %49, i64 -4
  %51 = load i32, ptr %50, align 4
  %52 = sdiv i32 %51, 2
  %.neg.i = sdiv i32 %.val.i, -2
  %53 = add nsw i32 %.neg.i, -1
  %54 = add nsw i32 %53, %52
  %55 = icmp sgt i32 %54, 6
  %56 = icmp slt i32 %51, 2
  %or.cond = or i1 %55, %56
  br i1 %or.cond, label %Gia_ResubToTruth6.exit, label %61

Gia_ResubVarNum.exit.thread:                      ; preds = %44
  %57 = load i32, ptr %.val6.i32, align 4
  %58 = icmp slt i32 %57, 2
  br i1 %58, label %Gia_ResubToTruth6.exit, label %59

59:                                               ; preds = %Gia_ResubVarNum.exit.thread
  %60 = lshr i32 %57, 1
  br label %Gia_ResubVarNum.exit.i

61:                                               ; preds = %Gia_ResubVarNum.exit
  %62 = lshr i32 %51, 1
  %63 = add nsw i32 %53, %62
  br label %Gia_ResubVarNum.exit.i

Gia_ResubVarNum.exit.i:                           ; preds = %61, %59
  %.in = phi i32 [ %60, %59 ], [ %62, %61 ]
  %.0.i.i = phi i32 [ 1, %59 ], [ %63, %61 ]
  %64 = add nsw i32 %.in, -2
  %65 = tail call i64 @Gia_ResubToTruth6_rec(ptr noundef nonnull %.0, i32 noundef %64, i32 noundef %.0.i.i)
  br label %Gia_ResubToTruth6.exit

Gia_ResubToTruth6.exit:                           ; preds = %Gia_ResubVarNum.exit.thread, %7, %Gia_ResubVarNum.exit.i, %Gia_ResubVarNum.exit, %Gia_ManDeriveBidec.exit
  %.038 = phi ptr [ %.0, %Gia_ResubVarNum.exit ], [ null, %Gia_ManDeriveBidec.exit ], [ %.0, %Gia_ResubVarNum.exit.i ], [ null, %7 ], [ %.0, %Gia_ResubVarNum.exit.thread ]
  %.not.i35 = icmp eq ptr %.val30, null
  br i1 %.not.i35, label %Vec_WrdFree.exit, label %66

66:                                               ; preds = %Gia_ResubToTruth6.exit
  tail call void @free(ptr noundef nonnull %.val30) #14
  br label %Vec_WrdFree.exit

Vec_WrdFree.exit:                                 ; preds = %Gia_ResubToTruth6.exit, %66
  tail call void @free(ptr noundef nonnull %8) #14
  ret ptr %.038
}